target datalayout = "e-m:e-p270:32:32-p271:32:32-p272:64:64-i64:64-i128:128-f80:128-n8:16:32:64-S128"
target triple = "x86_64-pc-linux-gnu"

%struct.ProtocolVersion = type { i8, i8 }
%struct.WOLFSSL_METHOD = type { %struct.ProtocolVersion, i8, i8 }

; Function Attrs: nounwind uwtable
define i16 @MakeTLSv1_3() #0 {
  %1 = alloca %struct.ProtocolVersion, align 1
  %2 = getelementptr inbounds nuw %struct.ProtocolVersion, ptr %1, i32 0, i32 0
  store i8 3, ptr %2, align 1, !tbaa !63
  %3 = getelementptr inbounds nuw %struct.ProtocolVersion, ptr %1, i32 0, i32 1
  store i8 4, ptr %3, align 1, !tbaa !64
  %4 = load i16, ptr %1, align 1
  ret i16 %4
}

; Function Attrs: nounwind uwtable
define ptr @wolfTLS_client_method_ex(ptr noundef %0) #0 {
  %2 = alloca ptr, align 8
  %3 = alloca ptr, align 8
  %4 = alloca %struct.ProtocolVersion, align 1
  store ptr %0, ptr %2, align 8, !tbaa !54
  call void @llvm.lifetime.start.p0(i64 8, ptr %3) #8
  %5 = call ptr @wolfSSL_Malloc(i64 noundef 4)
  store ptr %5, ptr %3, align 8, !tbaa !227
  br label %6

6:                                                ; preds = %1
  br label %7

7:                                                ; preds = %6
  br label %8

8:                                                ; preds = %7
  %9 = load ptr, ptr %3, align 8, !tbaa !227
  %10 = icmp ne ptr %9, null
  br i1 %10, label %11, label %19

11:                                               ; preds = %8
  %12 = load ptr, ptr %3, align 8, !tbaa !227
  %13 = call i16 @MakeTLSv1_3()
  store i16 %13, ptr %4, align 1
  %14 = load i16, ptr %4, align 1
  call void @InitSSL_Method(ptr noundef %12, i16 %14)
  %15 = load ptr, ptr %3, align 8, !tbaa !227
  %16 = getelementptr inbounds nuw %struct.WOLFSSL_METHOD, ptr %15, i32 0, i32 2
  store i8 1, ptr %16, align 1, !tbaa !228
  %17 = load ptr, ptr %3, align 8, !tbaa !227
  %18 = getelementptr inbounds nuw %struct.WOLFSSL_METHOD, ptr %17, i32 0, i32 1
  store i8 1, ptr %18, align 1, !tbaa !229
  br label %19

19:                                               ; preds = %11, %8
  %20 = load ptr, ptr %3, align 8, !tbaa !227
  call void @llvm.lifetime.end.p0(i64 8, ptr %3) #8
  ret ptr %20
}