; Function Attrs: nounwind uwtable
define ptr @wolfTLS_client_method_ex(ptr noundef readnone captures(none) %0) local_unnamed_addr #0 {
  %2 = tail call ptr @wolfSSL_Malloc(i64 noundef 4) #17
  %.not = icmp eq ptr %2, null
  br i1 %.not, label %6, label %3

3:                                                ; preds = %1
  tail call void @InitSSL_Method(ptr noundef nonnull %2, i16 1027) #17
  %4 = getelementptr inbounds nuw i8, ptr %2, i64 3
  store i8 1, ptr %4, align 1, !tbaa !206
  %5 = getelementptr inbounds nuw i8, ptr %2, i64 2
  store i8 1, ptr %5, align 1, !tbaa !207
  br label %6

6:                                                ; preds = %3, %1
  ret ptr %2
}